; Function Attrs: nofree norecurse nosync nounwind memory(readwrite, inaccessiblemem: none) uwtable
define void @Acb_ObjRemoveDupFanins(ptr noundef readonly captures(none) %0, i32 noundef %1) local_unnamed_addr #1 {
  %3 = getelementptr i8, ptr %0, i64 136
  %4 = getelementptr i8, ptr %0, i64 152
  %5 = sext i32 %1 to i64
  %.val.i6 = load ptr, ptr %3, align 8, !tbaa !12
  %.val19.i7 = load ptr, ptr %4, align 8, !tbaa !12
  %6 = getelementptr inbounds i32, ptr %.val.i6, i64 %5
  %7 = load i32, ptr %6, align 4, !tbaa !15
  %8 = sext i32 %7 to i64
  %9 = getelementptr inbounds i32, ptr %.val19.i7, i64 %8
  %10 = load i32, ptr %9, align 4, !tbaa !15
  %11 = icmp sgt i32 %10, 0
  br i1 %11, label %.lr.ph.preheader.i, label %.loopexit

.lr.ph.preheader.i:                               ; preds = %2, %Acb_ObjRemoveDupFanins_int.exit
  %12 = phi i32 [ %26, %Acb_ObjRemoveDupFanins_int.exit ], [ %10, %2 ]
  %13 = phi ptr [ %25, %Acb_ObjRemoveDupFanins_int.exit ], [ %9, %2 ]
  %wide.trip.count32.i = zext nneg i32 %12 to i64
  br label %.lr.ph.i

.loopexit.i:                                      ; preds = %15
  %indvars.iv.next.i = add nuw nsw i64 %indvars.iv.i, 1
  %exitcond33.not.i = icmp eq i64 %indvars.iv.next30.i, %wide.trip.count32.i
  br i1 %exitcond33.not.i, label %.loopexit, label %.lr.ph.i, !llvm.loop !29

.lr.ph.i:                                         ; preds = %.loopexit.i, %.lr.ph.preheader.i
  %indvars.iv29.i = phi i64 [ 0, %.lr.ph.preheader.i ], [ %indvars.iv.next30.i, %.loopexit.i ]
  %indvars.iv.i = phi i64 [ 1, %.lr.ph.preheader.i ], [ %indvars.iv.next.i, %.loopexit.i ]
  %indvars.iv.next30.i = add nuw nsw i64 %indvars.iv29.i, 1
  %14 = getelementptr inbounds nuw i32, ptr %13, i64 %indvars.iv.next30.i
  br label %15

15:                                               ; preds = %16, %.lr.ph.i
  %indvars.iv26.i = phi i64 [ %indvars.iv.next27.i, %16 ], [ %indvars.iv.i, %.lr.ph.i ]
  %exitcond.not.i = icmp eq i64 %indvars.iv26.i, %wide.trip.count32.i
  br i1 %exitcond.not.i, label %.loopexit.i, label %16

16:                                               ; preds = %15
  %17 = load i32, ptr %14, align 4, !tbaa !15
  %indvars.iv.next27.i = add nuw nsw i64 %indvars.iv26.i, 1
  %18 = getelementptr inbounds nuw i32, ptr %13, i64 %indvars.iv.next27.i
  %19 = load i32, ptr %18, align 4, !tbaa !15
  %.not.i = icmp eq i32 %17, %19
  br i1 %.not.i, label %Acb_ObjRemoveDupFanins_int.exit, label %15, !llvm.loop !30

Acb_ObjRemoveDupFanins_int.exit:                  ; preds = %16
  %20 = trunc nuw nsw i64 %indvars.iv29.i to i32
  %21 = trunc nuw nsw i64 %indvars.iv26.i to i32
  tail call void @Acb_ObjRemoveDup(ptr noundef readonly %0, i32 noundef %1, i32 noundef %20, i32 noundef %21)
  %.val.i = load ptr, ptr %3, align 8, !tbaa !12
  %.val19.i = load ptr, ptr %4, align 8, !tbaa !12
  %22 = getelementptr inbounds i32, ptr %.val.i, i64 %5
  %23 = load i32, ptr %22, align 4, !tbaa !15
  %24 = sext i32 %23 to i64
  %25 = getelementptr inbounds i32, ptr %.val19.i, i64 %24
  %26 = load i32, ptr %25, align 4, !tbaa !15
  %27 = icmp sgt i32 %26, 0
  br i1 %27, label %.lr.ph.preheader.i, label %.loopexit, !llvm.loop !31

.loopexit:                                        ; preds = %Acb_ObjRemoveDupFanins_int.exit, %.loopexit.i, %2
  ret void
}